Certificate:
    Data:
        Version: 3 (0x2)
        Serial Number: 4096 (0x1000)
    Signature Algorithm: sha256WithRSAEncryption
        Issuer: CN=ca.local
        Validity
            Not Before: Apr 10 09:15:31 2017 GMT
            Not After : Apr 10 09:15:31 2018 GMT
        Subject: CN=openldap.local
        Subject Public Key Info:
            Public Key Algorithm: rsaEncryption
                Public-Key: (2048 bit)
                Modulus:
                    00:bc:06:9d:46:63:66:5e:56:7d:52:ae:11:5e:6f:
                    a7:c4:a8:4f:f3:4b:6f:41:78:d3:38:a1:e1:5d:d0:
                    53:dd:97:4f:a5:b3:ad:3a:b7:92:c2:b1:56:01:35:
                    5c:e9:f4:c3:b1:7d:6c:15:a9:c1:27:38:e6:15:40:
                    e4:e0:77:4b:21:50:0c:f0:08:80:99:dd:2e:41:91:
                    50:32:53:78:65:f2:c4:bd:48:c8:e4:b7:bb:16:fa:
                    18:31:b8:1b:5d:c2:e4:2a:f2:1d:ee:42:13:98:4e:
                    62:31:7d:f4:e5:0a:75:ab:66:dd:4f:ff:14:c7:30:
                    bf:b1:b9:e4:1d:23:cb:0d:62:6a:b7:36:a4:79:bf:
                    2b:98:fe:0c:cb:bd:fc:db:9d:1e:04:1f:2e:ba:3d:
                    b0:54:54:13:5a:e3:31:4f:cb:1c:34:7e:46:b6:d4:
                    72:c6:77:c2:3e:2f:e0:13:97:b3:30:f4:09:5b:fe:
                    ec:c4:6a:27:53:c7:97:28:58:3f:c0:2e:dc:43:d6:
                    1c:80:f8:13:69:e8:5d:2c:c8:ed:eb:86:38:99:51:
                    a6:5c:bc:7d:52:fe:86:80:3e:6f:75:7c:4d:98:d3:
                    52:b2:51:2c:0d:66:4e:5e:aa:00:7c:0d:45:53:d1:
                    14:3a:5d:22:60:5e:68:83:65:03:fa:7d:e0:39:b4:
                    66:df
                Exponent: 65537 (0x10001)
        X509v3 extensions:
            X509v3 Basic Constraints: 
                CA:FALSE
            Netscape Comment: 
                OpenSSL Generated Certificate
            X509v3 Subject Key Identifier: 
                46:B5:86:46:3E:50:45:2E:85:61:47:D2:4F:12:15:E6:71:86:75:FB
            X509v3 Authority Key Identifier: 
                keyid:A0:8C:B6:45:3F:83:61:BC:FA:2E:A7:23:2D:92:11:70:20:6B:77:59

    Signature Algorithm: sha256WithRSAEncryption
         a5:de:35:4f:c8:73:41:cd:66:a2:4b:ef:16:e1:54:32:3a:32:
         86:16:b0:4b:c7:06:c6:81:37:74:6f:2a:8f:52:77:04:43:ca:
         8e:a7:70:d8:16:49:b1:eb:ef:af:51:ef:64:ae:e9:d6:de:89:
         7a:70:a8:e9:70:58:2b:e5:d9:92:86:8c:ee:8b:86:87:77:aa:
         d3:10:ec:6a:ce:01:d2:f0:f3:64:ed:dd:e5:5b:2d:a8:f0:a9:
         df:56:fd:9e:42:ee:ea:c8:c3:66:0a:6e:64:89:73:82:ea:c5:
         de:6a:65:34:8d:7d:25:27:6e:27:b2:f0:dc:0c:5c:79:a2:f3:
         15:69:01:1f:f2:3b:ea:30:b6:29:62:22:b6:86:d8:58:ba:dc:
         0b:fd:aa:70:02:82:63:be:62:3c:ef:25:af:4c:df:a2:fe:4f:
         31:35:d1:bf:1c:72:a8:8b:6e:59:3d:89:a7:87:a7:8a:dd:3e:
         56:9c:1f:3d:68:b9:df:6f:ac:e3:ab:19:b8:d9:ec:73:46:3b:
         b0:44:04:69:78:0f:c3:b0:48:9d:30:0a:6d:6a:a7:35:fe:77:
         57:bf:ea:9a:7b:83:0e:ca:6c:d9:83:47:a8:cf:66:a7:11:52:
         57:1b:27:0e:e8:9c:af:b3:61:d3:c8:de:36:1d:a1:ed:86:a7:
         e2:8f:11:dd
-----BEGIN CERTIFICATE-----
MIIDIzCCAgugAwIBAgICEAAwDQYJKoZIhvcNAQELBQAwEzERMA8GA1UEAwwIY2Eu
bG9jYWwwHhcNMTcwNDEwMDkxNTMxWhcNMTgwNDEwMDkxNTMxWjAZMRcwFQYDVQQD
DA5vcGVubGRhcC5sb2NhbDCCASIwDQYJKoZIhvcNAQEBBQADggEPADCCAQoCggEB
ALwGnUZjZl5WfVKuEV5vp8SoT/NLb0F40zih4V3QU92XT6WzrTq3ksKxVgE1XOn0
w7F9bBWpwSc45hVA5OB3SyFQDPAIgJndLkGRUDJTeGXyxL1IyOS3uxb6GDG4G13C
5CryHe5CE5hOYjF99OUKdatm3U//FMcwv7G55B0jyw1iarc2pHm/K5j+DMu9/Nud
HgQfLro9sFRUE1rjMU/LHDR+RrbUcsZ3wj4v4BOXszD0CVv+7MRqJ1PHlyhYP8Au
3EPWHID4E2noXSzI7euGOJlRply8fVL+hoA+b3V8TZjTUrJRLA1mTl6qAHwNRVPR
FDpdImBeaINlA/p94Dm0Zt8CAwEAAaN7MHkwCQYDVR0TBAIwADAsBglghkgBhvhC
AQ0EHxYdT3BlblNTTCBHZW5lcmF0ZWQgQ2VydGlmaWNhdGUwHQYDVR0OBBYEFEa1
hkY+UEUuhWFH0k8SFeZxhnX7MB8GA1UdIwQYMBaAFKCMtkU/g2G8+i6nIy2SEXAg
a3dZMA0GCSqGSIb3DQEBCwUAA4IBAQCl3jVPyHNBzWaiS+8W4VQyOjKGFrBLxwbG
gTd0byqPUncEQ8qOp3DYFkmx6++vUe9krunW3ol6cKjpcFgr5dmShozui4aHd6rT
EOxqzgHS8PNk7d3lWy2o8KnfVv2eQu7qyMNmCm5kiXOC6sXeamU0jX0lJ24nsvDc
DFx5ovMVaQEf8jvqMLYpYiK2hthYutwL/apwAoJjvmI87yWvTN+i/k8xNdG/HHKo
i25ZPYmnh6eK3T5WnB89aLnfb6zjqxm42exzRjuwRARpeA/DsEidMAptaqc1/ndX
v+qae4MOymzZg0eoz2anEVJXGycO6Jyvs2HTyN42HaHthqfijxHd
-----END CERTIFICATE-----
