Certificate:
    Data:
        Version: 3 (0x2)
        Serial Number: 4097 (0x1001)
    Signature Algorithm: sha256WithRSAEncryption
        Issuer: CN=ca.local
        Validity
            Not Before: Apr 10 09:15:31 2017 GMT
            Not After : Apr 10 09:15:31 2018 GMT
        Subject: CN=wildfly.local
        Subject Public Key Info:
            Public Key Algorithm: rsaEncryption
                Public-Key: (2048 bit)
                Modulus:
                    00:b8:26:78:b1:b3:e9:d7:0f:6d:44:43:15:e1:8e:
                    07:4f:1b:ad:8b:71:0f:89:a1:e1:55:89:56:97:0f:
                    23:d4:2b:40:3a:d8:79:4c:29:9f:80:de:48:e4:60:
                    5b:a3:66:13:bd:6f:c8:a3:57:4d:e1:eb:b1:3a:3d:
                    3c:95:67:03:2c:fb:3e:22:c6:6e:99:a8:38:b6:89:
                    f0:21:81:4d:81:e8:63:81:21:46:3b:85:d6:90:52:
                    f1:8e:97:07:f9:7e:ae:12:14:78:7b:59:db:f1:6a:
                    37:ca:ee:59:aa:83:12:fd:88:1d:b4:32:5c:c0:0f:
                    58:73:6c:0a:c7:b5:b7:5a:b5:e8:b3:94:58:8a:c8:
                    14:39:44:ad:84:87:94:94:56:2d:9c:0f:f2:eb:31:
                    81:41:ac:a3:09:f5:da:85:87:e4:7c:94:8f:94:4b:
                    fe:79:8c:ce:af:84:9e:09:83:6b:d8:6e:3c:30:ab:
                    aa:0d:cb:dd:b5:f3:12:3b:56:0c:9f:ae:13:fd:bd:
                    96:1f:38:11:0c:7a:eb:e7:11:09:2c:9a:cd:38:75:
                    03:26:97:b8:c5:7d:2a:7d:26:a5:19:f4:e2:24:d9:
                    61:f5:77:8c:31:cb:fd:72:ec:1a:2d:54:d1:0a:a5:
                    73:5f:af:3c:22:e8:18:6a:ac:d2:9b:a3:dd:03:67:
                    ba:e1
                Exponent: 65537 (0x10001)
        X509v3 extensions:
            X509v3 Basic Constraints: 
                CA:FALSE
            Netscape Comment: 
                OpenSSL Generated Certificate
            X509v3 Subject Key Identifier: 
                71:49:E4:8B:A7:6A:4D:79:12:F5:6E:B7:17:62:02:B0:68:0F:53:D4
            X509v3 Authority Key Identifier: 
                keyid:A0:8C:B6:45:3F:83:61:BC:FA:2E:A7:23:2D:92:11:70:20:6B:77:59

    Signature Algorithm: sha256WithRSAEncryption
         88:70:85:cd:48:21:e6:70:58:83:04:86:23:44:83:33:0e:89:
         94:78:57:fa:d7:53:bb:30:57:64:e6:b7:c4:e1:0a:4e:5e:4c:
         e0:8b:45:21:df:ee:f5:10:59:60:b5:23:16:6a:41:96:e5:26:
         34:14:06:5f:52:c4:59:d4:41:69:82:40:09:3f:81:50:22:0b:
         57:df:de:b4:0f:51:19:c3:0a:6b:9c:e9:f3:c9:44:98:7b:1c:
         cf:66:dc:29:0b:7a:33:02:7f:cd:ce:e3:53:2d:a0:45:72:38:
         cf:cd:8a:d3:71:1a:cb:13:22:cc:ee:f8:b7:b2:90:dd:2f:b2:
         3a:f6:7e:a9:fb:cf:d7:41:47:59:f8:53:6c:39:92:a3:ad:76:
         06:a2:18:37:d6:3e:d8:03:81:7f:42:1c:20:ab:c0:ab:a8:d7:
         40:50:58:06:a3:fa:31:80:43:db:0d:08:8c:ad:62:5c:c3:a0:
         25:27:10:e5:ee:d9:75:3a:e5:79:a2:9b:7b:56:8a:34:18:1c:
         fb:a0:b3:0f:ce:a8:41:7a:eb:47:a9:9a:3b:bd:bb:46:56:c4:
         0d:b6:43:e8:01:a4:0e:bb:c0:16:8a:b3:5d:4c:38:6c:c9:32:
         43:19:70:ce:5d:c9:61:43:20:13:bc:10:82:68:85:2c:80:26:
         d8:ee:d0:57
-----BEGIN CERTIFICATE-----
MIIDIjCCAgqgAwIBAgICEAEwDQYJKoZIhvcNAQELBQAwEzERMA8GA1UEAwwIY2Eu
bG9jYWwwHhcNMTcwNDEwMDkxNTMxWhcNMTgwNDEwMDkxNTMxWjAYMRYwFAYDVQQD
DA13aWxkZmx5LmxvY2FsMIIBIjANBgkqhkiG9w0BAQEFAAOCAQ8AMIIBCgKCAQEA
uCZ4sbPp1w9tREMV4Y4HTxuti3EPiaHhVYlWlw8j1CtAOth5TCmfgN5I5GBbo2YT
vW/Io1dN4euxOj08lWcDLPs+IsZumag4tonwIYFNgehjgSFGO4XWkFLxjpcH+X6u
EhR4e1nb8Wo3yu5ZqoMS/YgdtDJcwA9Yc2wKx7W3WrXos5RYisgUOUSthIeUlFYt
nA/y6zGBQayjCfXahYfkfJSPlEv+eYzOr4SeCYNr2G48MKuqDcvdtfMSO1YMn64T
/b2WHzgRDHrr5xEJLJrNOHUDJpe4xX0qfSalGfTiJNlh9XeMMcv9cuwaLVTRCqVz
X688IugYaqzSm6PdA2e64QIDAQABo3sweTAJBgNVHRMEAjAAMCwGCWCGSAGG+EIB
DQQfFh1PcGVuU1NMIEdlbmVyYXRlZCBDZXJ0aWZpY2F0ZTAdBgNVHQ4EFgQUcUnk
i6dqTXkS9W63F2ICsGgPU9QwHwYDVR0jBBgwFoAUoIy2RT+DYbz6LqcjLZIRcCBr
d1kwDQYJKoZIhvcNAQELBQADggEBAIhwhc1IIeZwWIMEhiNEgzMOiZR4V/rXU7sw
V2Tmt8ThCk5eTOCLRSHf7vUQWWC1IxZqQZblJjQUBl9SxFnUQWmCQAk/gVAiC1ff
3rQPURnDCmuc6fPJRJh7HM9m3CkLejMCf83O41MtoEVyOM/NitNxGssTIszu+Ley
kN0vsjr2fqn7z9dBR1n4U2w5kqOtdgaiGDfWPtgDgX9CHCCrwKuo10BQWAaj+jGA
Q9sNCIytYlzDoCUnEOXu2XU65Xmim3tWijQYHPugsw/OqEF660epmju9u0ZWxA22
Q+gBpA67wBaKs11MOGzJMkMZcM5dyWFDIBO8EIJohSyAJtju0Fc=
-----END CERTIFICATE-----
